target datalayout = "e-m:e-p270:32:32-p271:32:32-p272:64:64-i64:64-i128:128-f80:128-n8:16:32:64-S128"
target triple = "x86_64-pc-linux-gnu"

@progname = internal global ptr null, align 8
@.str.36 = private unnamed_addr constant [35 x i8] c"%s: Cannot create directory %s: %s\00", align 1

; Function Attrs: nounwind uwtable
define internal ptr @memcheck(ptr noundef %0) #0 {
  %2 = alloca ptr, align 8
  store ptr %0, ptr %2, align 8
  %3 = load ptr, ptr %2, align 8
  %4 = icmp eq ptr %3, null
  br i1 %4, label %5, label %9

5:                                                ; preds = %1
  %6 = call ptr @__errno_location() #16
  %7 = load i32, ptr %6, align 4
  %8 = call ptr @pg_strerror(i32 noundef %7)
  call void @memory_exhausted(ptr noundef %8) #15
  unreachable

9:                                                ; preds = %1
  %10 = load ptr, ptr %2, align 8
  ret ptr %10
}

; Function Attrs: nounwind uwtable
define internal ptr @ecpyalloc(ptr noundef %0) #0 {
  %2 = alloca ptr, align 8
  store ptr %0, ptr %2, align 8
  %3 = load ptr, ptr %2, align 8
  %4 = call noalias ptr @strdup(ptr noundef %3) #13
  %5 = call ptr @memcheck(ptr noundef %4)
  ret ptr %5
}

; Function Attrs: nounwind uwtable
define internal void @mkdirs(ptr noundef %0, i1 noundef zeroext %1) #0 {
  %3 = alloca ptr, align 8
  %4 = alloca i8, align 1
  %5 = alloca ptr, align 8
  %6 = alloca ptr, align 8
  %7 = alloca i32, align 4
  store ptr %0, ptr %3, align 8
  %8 = zext i1 %1 to i8
  store i8 %8, ptr %4, align 1
  call void @llvm.lifetime.start.p0(i64 8, ptr %5) #13
  call void @llvm.lifetime.start.p0(i64 8, ptr %6) #13
  %9 = load ptr, ptr %3, align 8
  %10 = call ptr @ecpyalloc(ptr noundef %9)
  store ptr %10, ptr %5, align 8
  store ptr %10, ptr %6, align 8
  br label %11

11:                                               ; preds = %16, %2
  %12 = load ptr, ptr %6, align 8
  %13 = load i8, ptr %12, align 1
  %14 = sext i8 %13 to i32
  %15 = icmp eq i32 %14, 47
  br i1 %15, label %16, label %19

16:                                               ; preds = %11
  %17 = load ptr, ptr %6, align 8
  %18 = getelementptr inbounds nuw i8, ptr %17, i32 1
  store ptr %18, ptr %6, align 8
  br label %11, !llvm.loop !31

19:                                               ; preds = %11
  br label %20

20:                                               ; preds = %64, %19
  %21 = load ptr, ptr %6, align 8
  %22 = icmp ne ptr %21, null
  br i1 %22, label %23, label %33

23:                                               ; preds = %20
  %24 = load ptr, ptr %6, align 8
  %25 = call ptr @strchr(ptr noundef %24, i32 noundef 47) #14
  store ptr %25, ptr %6, align 8
  %26 = icmp ne ptr %25, null
  br i1 %26, label %31, label %27

27:                                               ; preds = %23
  %28 = load i8, ptr %4, align 1, !range !6, !noundef !7
  %29 = trunc i8 %28 to i1
  %30 = xor i1 %29, true
  br label %31

31:                                               ; preds = %27, %23
  %32 = phi i1 [ true, %23 ], [ %30, %27 ]
  br label %33

33:                                               ; preds = %31, %20
  %34 = phi i1 [ false, %20 ], [ %32, %31 ]
  br i1 %34, label %35, label %65

35:                                               ; preds = %33
  %36 = load ptr, ptr %6, align 8
  %37 = icmp ne ptr %36, null
  br i1 %37, label %38, label %40

38:                                               ; preds = %35
  %39 = load ptr, ptr %6, align 8
  store i8 0, ptr %39, align 1
  br label %40

40:                                               ; preds = %38, %35
  %41 = load ptr, ptr %5, align 8
  %42 = call i32 @mkdir(ptr noundef %41, i32 noundef 493) #13
  %43 = icmp ne i32 %42, 0
  br i1 %43, label %44, label %58

44:                                               ; preds = %40
  call void @llvm.lifetime.start.p0(i64 4, ptr %7) #13
  %45 = call ptr @__errno_location() #16
  %46 = load i32, ptr %45, align 4
  store i32 %46, ptr %7, align 4
  %47 = load i32, ptr %7, align 4
  %48 = icmp ne i32 %47, 17
  br i1 %48, label %49, label %57

49:                                               ; preds = %44
  %50 = load ptr, ptr %5, align 8
  %51 = call zeroext i1 @itsdir(ptr noundef %50)
  br i1 %51, label %57, label %52

52:                                               ; preds = %49
  %53 = load ptr, ptr @progname, align 8
  %54 = load ptr, ptr %5, align 8
  %55 = load i32, ptr %7, align 4
  %56 = call ptr @pg_strerror(i32 noundef %55)
  call void (ptr, ...) @error(ptr noundef @.str.36, ptr noundef %53, ptr noundef %54, ptr noundef %56)
  call void @exit(i32 noundef 1) #17
  unreachable

57:                                               ; preds = %49, %44
  call void @llvm.lifetime.end.p0(i64 4, ptr %7) #13
  br label %58

58:                                               ; preds = %57, %40
  %59 = load ptr, ptr %6, align 8
  %60 = icmp ne ptr %59, null
  br i1 %60, label %61, label %64

61:                                               ; preds = %58
  %62 = load ptr, ptr %6, align 8
  %63 = getelementptr inbounds nuw i8, ptr %62, i32 1
  store ptr %63, ptr %6, align 8
  store i8 47, ptr %62, align 1
  br label %64

64:                                               ; preds = %61, %58
  br label %20, !llvm.loop !32

65:                                               ; preds = %33
  %66 = load ptr, ptr %5, align 8
  call void @free(ptr noundef %66) #13
  call void @llvm.lifetime.end.p0(i64 8, ptr %6) #13
  call void @llvm.lifetime.end.p0(i64 8, ptr %5) #13
  ret void
}