; Function Attrs: nounwind uwtable
define internal fastcc void @mkdirs(ptr noundef readonly captures(none) %0, i1 noundef zeroext %1) unnamed_addr #0 {
  %3 = tail call noalias ptr @strdup(ptr noundef readonly %0) #26
  %4 = icmp eq ptr %3, null
  br i1 %4, label %5, label %ecpyalloc.exit

5:                                                ; preds = %2
  %6 = tail call ptr @__errno_location() #28
  %7 = load i32, ptr %6, align 4
  %8 = tail call ptr @pg_strerror(i32 noundef %7) #26
  tail call fastcc void @memory_exhausted(ptr noundef %8) #30
  unreachable

ecpyalloc.exit:                                   ; preds = %2, %ecpyalloc.exit
  %.0 = phi ptr [ %11, %ecpyalloc.exit ], [ %3, %2 ]
  %9 = load i8, ptr %.0, align 1
  %10 = icmp eq i8 %9, 47
  %11 = getelementptr inbounds nuw i8, ptr %.0, i64 1
  br i1 %10, label %ecpyalloc.exit, label %.preheader, !llvm.loop !72

.preheader:                                       ; preds = %ecpyalloc.exit
  br i1 %1, label %.preheader.split.preheader, label %.preheader.split.us

.preheader.split.preheader:                       ; preds = %.preheader
  %12 = tail call ptr @strchr(ptr noundef nonnull dereferenceable(1) %.0, i32 noundef 47) #27
  %13 = icmp eq ptr %12, null
  br i1 %13, label %.critedge, label %.lr.ph

.preheader.split.us:                              ; preds = %.preheader, %25
  %.123.us = phi ptr [ %26, %25 ], [ %.0, %.preheader ]
  %14 = tail call ptr @strchr(ptr noundef nonnull dereferenceable(1) %.123.us, i32 noundef 47) #27
  %15 = icmp eq ptr %14, null
  br i1 %15, label %17, label %16

16:                                               ; preds = %.preheader.split.us
  store i8 0, ptr %14, align 1
  br label %17

17:                                               ; preds = %16, %.preheader.split.us
  %18 = tail call i32 @mkdir(ptr noundef nonnull %3, i32 noundef 493) #26
  %.not21.us = icmp eq i32 %18, 0
  br i1 %.not21.us, label %24, label %19

19:                                               ; preds = %17
  %20 = tail call ptr @__errno_location() #28
  %21 = load i32, ptr %20, align 4
  %.not22.us = icmp eq i32 %21, 17
  br i1 %.not22.us, label %24, label %22

22:                                               ; preds = %19
  %23 = tail call fastcc zeroext i1 @itsdir(ptr noundef nonnull %3)
  br i1 %23, label %24, label %.split.us

24:                                               ; preds = %22, %19, %17
  br i1 %15, label %.critedge, label %25

25:                                               ; preds = %24
  %26 = getelementptr inbounds nuw i8, ptr %14, i64 1
  store i8 47, ptr %14, align 1
  br label %.preheader.split.us, !llvm.loop !73

.lr.ph:                                           ; preds = %.preheader.split.preheader, %.preheader.split
  %27 = phi ptr [ %37, %.preheader.split ], [ %12, %.preheader.split.preheader ]
  store i8 0, ptr %27, align 1
  %28 = tail call i32 @mkdir(ptr noundef nonnull %3, i32 noundef 493) #26
  %.not21 = icmp eq i32 %28, 0
  br i1 %.not21, label %.preheader.split, label %29

29:                                               ; preds = %.lr.ph
  %30 = tail call ptr @__errno_location() #28
  %31 = load i32, ptr %30, align 4
  %.not22 = icmp eq i32 %31, 17
  br i1 %.not22, label %.preheader.split, label %32

32:                                               ; preds = %29
  %33 = tail call fastcc zeroext i1 @itsdir(ptr noundef nonnull %3)
  br i1 %33, label %.preheader.split, label %.split.us

.split.us:                                        ; preds = %22, %32
  %.us-phi = phi i32 [ %31, %32 ], [ %21, %22 ]
  %34 = load ptr, ptr @progname, align 8
  %35 = tail call ptr @pg_strerror(i32 noundef %.us-phi) #26
  tail call void (ptr, ...) @error(ptr noundef nonnull @.str.36, ptr noundef %34, ptr noundef nonnull %3, ptr noundef %35)
  tail call void @exit(i32 noundef 1) #29
  unreachable

.preheader.split:                                 ; preds = %29, %32, %.lr.ph
  store i8 47, ptr %27, align 1
  %36 = getelementptr inbounds nuw i8, ptr %27, i64 1
  %37 = tail call ptr @strchr(ptr noundef nonnull dereferenceable(1) %36, i32 noundef 47) #27
  %38 = icmp eq ptr %37, null
  br i1 %38, label %.critedge, label %.lr.ph, !llvm.loop !73

.critedge:                                        ; preds = %24, %.preheader.split, %.preheader.split.preheader
  tail call void @free(ptr noundef %3) #26
  ret void
}